
ControleCarro.elf:     file format elf32-avr

Sections:
Idx Name          Size      VMA       LMA       File off  Algn
  0 .data         0000000e  00800100  000008d6  0000096a  2**0
                  CONTENTS, ALLOC, LOAD, DATA
  1 .text         000008d6  00000000  00000000  00000094  2**1
                  CONTENTS, ALLOC, LOAD, READONLY, CODE
  2 .bss          00000020  0080010e  0080010e  00000978  2**0
                  ALLOC
  3 .comment      00000030  00000000  00000000  00000978  2**0
                  CONTENTS, READONLY
  4 .debug_aranges 00000118  00000000  00000000  000009a8  2**0
                  CONTENTS, READONLY, DEBUGGING
  5 .debug_info   00001094  00000000  00000000  00000ac0  2**0
                  CONTENTS, READONLY, DEBUGGING
  6 .debug_abbrev 00000677  00000000  00000000  00001b54  2**0
                  CONTENTS, READONLY, DEBUGGING
  7 .debug_line   0000059c  00000000  00000000  000021cb  2**0
                  CONTENTS, READONLY, DEBUGGING
  8 .debug_frame  000002b8  00000000  00000000  00002768  2**2
                  CONTENTS, READONLY, DEBUGGING
  9 .debug_str    0000064b  00000000  00000000  00002a20  2**0
                  CONTENTS, READONLY, DEBUGGING
 10 .debug_loc    00000794  00000000  00000000  0000306b  2**0
                  CONTENTS, READONLY, DEBUGGING
 11 .debug_ranges 00000100  00000000  00000000  000037ff  2**0
                  CONTENTS, READONLY, DEBUGGING

Disassembly of section .text:

00000000 <__vectors>:
   0:	0c 94 34 00 	jmp	0x68	; 0x68 <__ctors_end>
   4:	0c 94 51 00 	jmp	0xa2	; 0xa2 <__bad_interrupt>
   8:	0c 94 51 00 	jmp	0xa2	; 0xa2 <__bad_interrupt>
   c:	0c 94 51 00 	jmp	0xa2	; 0xa2 <__bad_interrupt>
  10:	0c 94 51 00 	jmp	0xa2	; 0xa2 <__bad_interrupt>
  14:	0c 94 51 00 	jmp	0xa2	; 0xa2 <__bad_interrupt>
  18:	0c 94 51 00 	jmp	0xa2	; 0xa2 <__bad_interrupt>
  1c:	0c 94 51 00 	jmp	0xa2	; 0xa2 <__bad_interrupt>
  20:	0c 94 51 00 	jmp	0xa2	; 0xa2 <__bad_interrupt>
  24:	0c 94 e3 00 	jmp	0x1c6	; 0x1c6 <__vector_9>
  28:	0c 94 51 00 	jmp	0xa2	; 0xa2 <__bad_interrupt>
  2c:	0c 94 51 00 	jmp	0xa2	; 0xa2 <__bad_interrupt>
  30:	0c 94 51 00 	jmp	0xa2	; 0xa2 <__bad_interrupt>
  34:	0c 94 51 00 	jmp	0xa2	; 0xa2 <__bad_interrupt>
  38:	0c 94 51 00 	jmp	0xa2	; 0xa2 <__bad_interrupt>
  3c:	0c 94 51 00 	jmp	0xa2	; 0xa2 <__bad_interrupt>
  40:	0c 94 51 00 	jmp	0xa2	; 0xa2 <__bad_interrupt>
  44:	0c 94 51 00 	jmp	0xa2	; 0xa2 <__bad_interrupt>
  48:	0c 94 53 00 	jmp	0xa6	; 0xa6 <__vector_18>
  4c:	0c 94 51 00 	jmp	0xa2	; 0xa2 <__bad_interrupt>
  50:	0c 94 51 00 	jmp	0xa2	; 0xa2 <__bad_interrupt>
  54:	0c 94 51 00 	jmp	0xa2	; 0xa2 <__bad_interrupt>
  58:	0c 94 51 00 	jmp	0xa2	; 0xa2 <__bad_interrupt>
  5c:	0c 94 51 00 	jmp	0xa2	; 0xa2 <__bad_interrupt>
  60:	0c 94 51 00 	jmp	0xa2	; 0xa2 <__bad_interrupt>
  64:	0c 94 51 00 	jmp	0xa2	; 0xa2 <__bad_interrupt>

00000068 <__ctors_end>:
  68:	11 24       	eor	r1, r1
  6a:	1f be       	out	0x3f, r1	; 63
  6c:	cf ef       	ldi	r28, 0xFF	; 255
  6e:	d8 e0       	ldi	r29, 0x08	; 8
  70:	de bf       	out	0x3e, r29	; 62
  72:	cd bf       	out	0x3d, r28	; 61

00000074 <__do_copy_data>:
  74:	11 e0       	ldi	r17, 0x01	; 1
  76:	a0 e0       	ldi	r26, 0x00	; 0
  78:	b1 e0       	ldi	r27, 0x01	; 1
  7a:	e6 ed       	ldi	r30, 0xD6	; 214
  7c:	f8 e0       	ldi	r31, 0x08	; 8
  7e:	02 c0       	rjmp	.+4      	; 0x84 <__do_copy_data+0x10>
  80:	05 90       	lpm	r0, Z+
  82:	0d 92       	st	X+, r0
  84:	ae 30       	cpi	r26, 0x0E	; 14
  86:	b1 07       	cpc	r27, r17
  88:	d9 f7       	brne	.-10     	; 0x80 <__do_copy_data+0xc>

0000008a <__do_clear_bss>:
  8a:	21 e0       	ldi	r18, 0x01	; 1
  8c:	ae e0       	ldi	r26, 0x0E	; 14
  8e:	b1 e0       	ldi	r27, 0x01	; 1
  90:	01 c0       	rjmp	.+2      	; 0x94 <.do_clear_bss_start>

00000092 <.do_clear_bss_loop>:
  92:	1d 92       	st	X+, r1

00000094 <.do_clear_bss_start>:
  94:	ae 32       	cpi	r26, 0x2E	; 46
  96:	b2 07       	cpc	r27, r18
  98:	e1 f7       	brne	.-8      	; 0x92 <.do_clear_bss_loop>
  9a:	0e 94 35 01 	call	0x26a	; 0x26a <main>
  9e:	0c 94 69 04 	jmp	0x8d2	; 0x8d2 <_exit>

000000a2 <__bad_interrupt>:
  a2:	0c 94 00 00 	jmp	0	; 0x0 <__vectors>

000000a6 <__vector_18>:
//----------------------------------------------------------------------------

//char buff[10];

ISR(USART_RX_vect)							
{				
  a6:	1f 92       	push	r1
  a8:	0f 92       	push	r0
  aa:	0f b6       	in	r0, 0x3f	; 63
  ac:	0f 92       	push	r0
  ae:	11 24       	eor	r1, r1
  b0:	8f 93       	push	r24
  b2:	9f 93       	push	r25
  b4:	ef 93       	push	r30
  b6:	ff 93       	push	r31
	stdout = &stdoutUART;
  b8:	80 e0       	ldi	r24, 0x00	; 0
  ba:	91 e0       	ldi	r25, 0x01	; 1
  bc:	90 93 2b 01 	sts	0x012B, r25
  c0:	80 93 2a 01 	sts	0x012A, r24
	
	char dadoRecebido = UDR0;	
  c4:	90 91 c6 00 	lds	r25, 0x00C6
	static uint8_t contDados = 0;
			
	switch(bufferRX_g.estadoBufferRecep) {
  c8:	80 91 1a 01 	lds	r24, 0x011A
  cc:	81 30       	cpi	r24, 0x01	; 1
  ce:	a1 f0       	breq	.+40     	; 0xf8 <__vector_18+0x52>
  d0:	18 f0       	brcs	.+6      	; 0xd8 <__vector_18+0x32>
  d2:	83 30       	cpi	r24, 0x03	; 3
  d4:	51 f0       	breq	.+20     	; 0xea <__vector_18+0x44>
  d6:	26 c0       	rjmp	.+76     	; 0x124 <__vector_18+0x7e>
		case IDLE:
			if (dadoRecebido == START_TRANSMISSION) 
  d8:	98 37       	cpi	r25, 0x78	; 120
  da:	19 f4       	brne	.+6      	; 0xe2 <__vector_18+0x3c>
				bufferRX_g.estadoBufferRecep = INICIADO;
  dc:	83 e0       	ldi	r24, 0x03	; 3
  de:	80 93 1a 01 	sts	0x011A, r24
			bufferRX_g.dadosRecebidosComSucesso = 'n';
  e2:	8e e6       	ldi	r24, 0x6E	; 110
  e4:	80 93 16 01 	sts	0x0116, r24
		break;
  e8:	22 c0       	rjmp	.+68     	; 0x12e <__vector_18+0x88>
			
		case INICIADO:
			bufferRX_g.qntDadosAReceber = QUANT_DADOS_PACOTE_TRANS;//dadoRecebido;
  ea:	86 e0       	ldi	r24, 0x06	; 6
  ec:	80 93 17 01 	sts	0x0117, r24
			bufferRX_g.estadoBufferRecep = RECEBENDO_DADOS;
  f0:	81 e0       	ldi	r24, 0x01	; 1
  f2:	80 93 1a 01 	sts	0x011A, r24
		break;
  f6:	1b c0       	rjmp	.+54     	; 0x12e <__vector_18+0x88>
		
		case RECEBENDO_DADOS:		
			bufferRecepcao_g[contDados] = dadoRecebido;
  f8:	80 91 0f 01 	lds	r24, 0x010F
  fc:	e8 2f       	mov	r30, r24
  fe:	f0 e0       	ldi	r31, 0x00	; 0
 100:	e0 5f       	subi	r30, 0xF0	; 240
 102:	fe 4f       	sbci	r31, 0xFE	; 254
 104:	90 83       	st	Z, r25
			contDados++;
 106:	8f 5f       	subi	r24, 0xFF	; 255
 108:	80 93 0f 01 	sts	0x010F, r24
			if(contDados >= bufferRX_g.qntDadosAReceber) {
 10c:	90 91 17 01 	lds	r25, 0x0117
 110:	89 17       	cp	r24, r25
 112:	68 f0       	brcs	.+26     	; 0x12e <__vector_18+0x88>
				bufferRX_g.estadoBufferRecep = IDLE;
 114:	10 92 1a 01 	sts	0x011A, r1
				contDados = 0;
 118:	10 92 0f 01 	sts	0x010F, r1
				bufferRX_g.dadosRecebidosComSucesso = 'y';//provisorio ate implementar o checksum
 11c:	89 e7       	ldi	r24, 0x79	; 121
 11e:	80 93 16 01 	sts	0x0116, r24
 122:	05 c0       	rjmp	.+10     	; 0x12e <__vector_18+0x88>
		break;
		
		case CHECKSUM:
		case CONCLUIDO:			
		default:
			bufferRX_g.estadoBufferRecep = IDLE;
 124:	10 92 1a 01 	sts	0x011A, r1
			bufferRX_g.dadosRecebidosComSucesso = 'y';
 128:	89 e7       	ldi	r24, 0x79	; 121
 12a:	80 93 16 01 	sts	0x0116, r24
	}

}	
 12e:	ff 91       	pop	r31
 130:	ef 91       	pop	r30
 132:	9f 91       	pop	r25
 134:	8f 91       	pop	r24
 136:	0f 90       	pop	r0
 138:	0f be       	out	0x3f, r0	; 63
 13a:	0f 90       	pop	r0
 13c:	1f 90       	pop	r1
 13e:	18 95       	reti

00000140 <ValoresIniciaisBuffer>:

//----------------------------------------------------------------------------

void ValoresIniciaisBuffer()
{
	bufferRX_g.dutyCicleM1 = 0;
 140:	10 92 20 01 	sts	0x0120, r1
 144:	10 92 1f 01 	sts	0x011F, r1
	bufferRX_g.dutyCicleM2 = 0;
 148:	10 92 22 01 	sts	0x0122, r1
 14c:	10 92 21 01 	sts	0x0121, r1
	bufferRX_g.qntdDadosLido = 0;
 150:	10 92 24 01 	sts	0x0124, r1
 154:	10 92 23 01 	sts	0x0123, r1
	bufferRX_g.iniciado = 'n';
 158:	8e e6       	ldi	r24, 0x6E	; 110
 15a:	80 93 18 01 	sts	0x0118, r24
	bufferRX_g.completo = 'n';
 15e:	80 93 19 01 	sts	0x0119, r24
	bufferRX_g.fonteAlimentacao = 'B';
 162:	92 e4       	ldi	r25, 0x42	; 66
 164:	90 93 1d 01 	sts	0x011D, r25
	bufferRX_g.direcao = 'P';
 168:	90 e5       	ldi	r25, 0x50	; 80
 16a:	90 93 1e 01 	sts	0x011E, r25
	bufferRX_g.dadosRecebidosComSucesso = 'n';
 16e:	80 93 16 01 	sts	0x0116, r24
	bufferRX_g.estadoCarro = PARADO;
 172:	81 e0       	ldi	r24, 0x01	; 1
 174:	80 93 25 01 	sts	0x0125, r24
	bufferRX_g.estadoBufferRecep = IDLE;
 178:	10 92 1a 01 	sts	0x011A, r1
	bufferRX_g.estadoBufferTrans = IDLE;
 17c:	10 92 1b 01 	sts	0x011B, r1
	bufferRX_g.erroCodeRecep = SEM_ERRO_RECEP;
 180:	80 e3       	ldi	r24, 0x30	; 48
 182:	80 93 1c 01 	sts	0x011C, r24
 186:	08 95       	ret

00000188 <DescarregaDadosRecebidos>:

//----------------------------------------------------------------------------

void DescarregaDadosRecebidos()
{
	bufferRX_g.direcao = bufferRecepcao_g[DIRECAO];
 188:	80 91 10 01 	lds	r24, 0x0110
 18c:	80 93 1e 01 	sts	0x011E, r24
	bufferRX_g.dutyCicleM1 = bufferRecepcao_g[DUTY_MOTOR_E];
 190:	80 91 11 01 	lds	r24, 0x0111
 194:	90 e0       	ldi	r25, 0x00	; 0
 196:	90 93 20 01 	sts	0x0120, r25
 19a:	80 93 1f 01 	sts	0x011F, r24
	bufferRX_g.dutyCicleM2 = bufferRecepcao_g[DUTY_MOTOR_D];
 19e:	80 91 12 01 	lds	r24, 0x0112
 1a2:	90 e0       	ldi	r25, 0x00	; 0
 1a4:	90 93 22 01 	sts	0x0122, r25
 1a8:	80 93 21 01 	sts	0x0121, r24
	bufferRX_g.anguloServoLeft = bufferRecepcao_g[ANGULO_SERVO_E];
 1ac:	80 91 13 01 	lds	r24, 0x0113
 1b0:	80 93 26 01 	sts	0x0126, r24
	bufferRX_g.anguloServoRight = bufferRecepcao_g[ANGULO_SERVO_D];
 1b4:	80 91 14 01 	lds	r24, 0x0114
 1b8:	80 93 27 01 	sts	0x0127, r24
	bufferRX_g.fonteAlimentacao = bufferRecepcao_g[FONTE_ALIMENTACAO];
 1bc:	80 91 15 01 	lds	r24, 0x0115
 1c0:	80 93 1d 01 	sts	0x011D, r24
 1c4:	08 95       	ret

000001c6 <__vector_9>:
}	

//----------------------------------------------------------------------------

ISR(TIMER2_OVF_vect)
{
 1c6:	1f 92       	push	r1
 1c8:	0f 92       	push	r0
 1ca:	0f b6       	in	r0, 0x3f	; 63
 1cc:	0f 92       	push	r0
 1ce:	11 24       	eor	r1, r1
 1d0:	2f 93       	push	r18
 1d2:	3f 93       	push	r19
 1d4:	4f 93       	push	r20
 1d6:	5f 93       	push	r21
 1d8:	6f 93       	push	r22
 1da:	7f 93       	push	r23
 1dc:	8f 93       	push	r24
 1de:	9f 93       	push	r25
 1e0:	af 93       	push	r26
 1e2:	bf 93       	push	r27
 1e4:	ef 93       	push	r30
 1e6:	ff 93       	push	r31
	static uint8_t tempoRecep = 0;
	
	if (tempoRecep > 30) {		
 1e8:	80 91 0e 01 	lds	r24, 0x010E
 1ec:	8f 31       	cpi	r24, 0x1F	; 31
 1ee:	38 f1       	brcs	.+78     	; 0x23e <__vector_9+0x78>
		if(bufferRX_g.erroCodeRecep != SEM_ERRO_RECEP) {
 1f0:	80 91 1c 01 	lds	r24, 0x011C
 1f4:	80 33       	cpi	r24, 0x30	; 48
 1f6:	41 f0       	breq	.+16     	; 0x208 <__vector_9+0x42>
			bufferRX_g.estadoBufferTrans = ERRO_COMUNICACAO;
 1f8:	85 e0       	ldi	r24, 0x05	; 5
 1fa:	80 93 1b 01 	sts	0x011B, r24
			TransmitiBuffer(&bufferRX_g);
 1fe:	86 e1       	ldi	r24, 0x16	; 22
 200:	91 e0       	ldi	r25, 0x01	; 1
 202:	0e 94 8e 02 	call	0x51c	; 0x51c <TransmitiBuffer>
 206:	19 c0       	rjmp	.+50     	; 0x23a <__vector_9+0x74>
		}
			
		else if (bufferRX_g.dadosRecebidosComSucesso == 'y') {			
 208:	80 91 16 01 	lds	r24, 0x0116
 20c:	89 37       	cpi	r24, 0x79	; 121
 20e:	a9 f4       	brne	.+42     	; 0x23a <__vector_9+0x74>
			DescarregaDadosRecebidos();
 210:	0e 94 c4 00 	call	0x188	; 0x188 <DescarregaDadosRecebidos>
			
			DirecaoCarro(&bufferRX_g);
 214:	86 e1       	ldi	r24, 0x16	; 22
 216:	91 e0       	ldi	r25, 0x01	; 1
 218:	0e 94 39 02 	call	0x472	; 0x472 <DirecaoCarro>
			AnguloServo(&bufferRX_g);
 21c:	86 e1       	ldi	r24, 0x16	; 22
 21e:	91 e0       	ldi	r25, 0x01	; 1
 220:	0e 94 9b 01 	call	0x336	; 0x336 <AnguloServo>
			TransmitiBuffer(&bufferRX_g);
 224:	86 e1       	ldi	r24, 0x16	; 22
 226:	91 e0       	ldi	r25, 0x01	; 1
 228:	0e 94 8e 02 	call	0x51c	; 0x51c <TransmitiBuffer>
			
			printf("z");
 22c:	8a e7       	ldi	r24, 0x7A	; 122
 22e:	90 e0       	ldi	r25, 0x00	; 0
 230:	0e 94 30 04 	call	0x860	; 0x860 <putchar>
			bufferRX_g.dadosRecebidosComSucesso = 'n';
 234:	8e e6       	ldi	r24, 0x6E	; 110
 236:	80 93 16 01 	sts	0x0116, r24
		}
					
		tempoRecep = 0;
 23a:	10 92 0e 01 	sts	0x010E, r1
	}
	
	tempoRecep++;
 23e:	80 91 0e 01 	lds	r24, 0x010E
 242:	8f 5f       	subi	r24, 0xFF	; 255
 244:	80 93 0e 01 	sts	0x010E, r24
}
 248:	ff 91       	pop	r31
 24a:	ef 91       	pop	r30
 24c:	bf 91       	pop	r27
 24e:	af 91       	pop	r26
 250:	9f 91       	pop	r25
 252:	8f 91       	pop	r24
 254:	7f 91       	pop	r23
 256:	6f 91       	pop	r22
 258:	5f 91       	pop	r21
 25a:	4f 91       	pop	r20
 25c:	3f 91       	pop	r19
 25e:	2f 91       	pop	r18
 260:	0f 90       	pop	r0
 262:	0f be       	out	0x3f, r0	; 63
 264:	0f 90       	pop	r0
 266:	1f 90       	pop	r1
 268:	18 95       	reti

0000026a <main>:

//----------------------------------------------------------------------------
int main()
{
	Usart_Init(MYUBRR);
 26a:	87 e6       	ldi	r24, 0x67	; 103
 26c:	90 e0       	ldi	r25, 0x00	; 0
 26e:	0e 94 a1 02 	call	0x542	; 0x542 <Usart_Init>
	//ADC_Init();
	ValoresIniciaisBuffer();
 272:	0e 94 a0 00 	call	0x140	; 0x140 <ValoresIniciaisBuffer>
	ConfiguracoesDirecaoInit();
 276:	0e 94 12 02 	call	0x424	; 0x424 <ConfiguracoesDirecaoInit>
	
	/*Contador Timer 2*/
	TIMSK2 = 0b00000001;
 27a:	81 e0       	ldi	r24, 0x01	; 1
 27c:	80 93 70 00 	sts	0x0070, r24
	/*Prescaler do Timer2*/
	TCCR2B = (1<<CS22) | (1<<CS21) | (1<<CS20);
 280:	87 e0       	ldi	r24, 0x07	; 7
 282:	80 93 b1 00 	sts	0x00B1, r24
	
	sei();	
 286:	78 94       	sei
	while(1){
		if(bufferRX_g.dadosRecebidosComSucesso == 'y') {
 288:	c6 e1       	ldi	r28, 0x16	; 22
 28a:	d1 e0       	ldi	r29, 0x01	; 1
			DirecaoCarro(&bufferRX_g);
			AnguloServo(&bufferRX_g);
			TransmitiBuffer(&bufferRX_g);
	
			printf("z");
			bufferRX_g.dadosRecebidosComSucesso = 'n';
 28c:	1e e6       	ldi	r17, 0x6E	; 110
	/*Prescaler do Timer2*/
	TCCR2B = (1<<CS22) | (1<<CS21) | (1<<CS20);
	
	sei();	
	while(1){
		if(bufferRX_g.dadosRecebidosComSucesso == 'y') {
 28e:	88 81       	ld	r24, Y
 290:	89 37       	cpi	r24, 0x79	; 121
 292:	e9 f7       	brne	.-6      	; 0x28e <main+0x24>
			
			DescarregaDadosRecebidos();
 294:	0e 94 c4 00 	call	0x188	; 0x188 <DescarregaDadosRecebidos>
			
			DirecaoCarro(&bufferRX_g);
 298:	ce 01       	movw	r24, r28
 29a:	0e 94 39 02 	call	0x472	; 0x472 <DirecaoCarro>
			AnguloServo(&bufferRX_g);
 29e:	ce 01       	movw	r24, r28
 2a0:	0e 94 9b 01 	call	0x336	; 0x336 <AnguloServo>
			TransmitiBuffer(&bufferRX_g);
 2a4:	ce 01       	movw	r24, r28
 2a6:	0e 94 8e 02 	call	0x51c	; 0x51c <TransmitiBuffer>
	
			printf("z");
 2aa:	8a e7       	ldi	r24, 0x7A	; 122
 2ac:	90 e0       	ldi	r25, 0x00	; 0
 2ae:	0e 94 30 04 	call	0x860	; 0x860 <putchar>
			bufferRX_g.dadosRecebidosComSucesso = 'n';
 2b2:	18 83       	st	Y, r17
 2b4:	ec cf       	rjmp	.-40     	; 0x28e <main+0x24>

000002b6 <CalculaDutyCicleM1>:
/*Irá receber sempre os duty cicle definidos 25, 50, 75 e 100*/
uint16_t CalculaDutyCicleM1(
	uint16_t porCentagem,
	TEstadoCarro estadoCarro
)
{
 2b6:	85 36       	cpi	r24, 0x65	; 101
 2b8:	91 05       	cpc	r25, r1
 2ba:	10 f0       	brcs	.+4      	; 0x2c0 <CalculaDutyCicleM1+0xa>
 2bc:	84 e6       	ldi	r24, 0x64	; 100
 2be:	90 e0       	ldi	r25, 0x00	; 0
	if(porCentagem > 100)
		porCentagem = 100;
	
	/*Valor é igual ao (35000 * 0,25) ou (350*porcentagem)*/
	uint16_t valor = porCentagem * 350;
 2c0:	4e e5       	ldi	r20, 0x5E	; 94
 2c2:	51 e0       	ldi	r21, 0x01	; 1
 2c4:	84 9f       	mul	r24, r20
 2c6:	90 01       	movw	r18, r0
 2c8:	85 9f       	mul	r24, r21
 2ca:	30 0d       	add	r19, r0
 2cc:	94 9f       	mul	r25, r20
 2ce:	30 0d       	add	r19, r0
 2d0:	11 24       	eor	r1, r1
				
	if(estadoCarro == ANDANDO_TRAS)
 2d2:	63 30       	cpi	r22, 0x03	; 3
 2d4:	31 f4       	brne	.+12     	; 0x2e2 <CalculaDutyCicleM1+0x2c>
		valor = 35000 - valor;
 2d6:	88 eb       	ldi	r24, 0xB8	; 184
 2d8:	98 e8       	ldi	r25, 0x88	; 136
 2da:	ac 01       	movw	r20, r24
 2dc:	42 1b       	sub	r20, r18
 2de:	53 0b       	sbc	r21, r19
 2e0:	9a 01       	movw	r18, r20
		
	return valor;
}
 2e2:	c9 01       	movw	r24, r18
 2e4:	08 95       	ret

000002e6 <CalculaDutyCicleM2>:
/*Irá receber sempre os duty cicle definidos 25, 50, 75 e 100*/
uint16_t CalculaDutyCicleM2(
	uint16_t porCentagem,
	TEstadoCarro estadoCarro
)
{
 2e6:	85 36       	cpi	r24, 0x65	; 101
 2e8:	91 05       	cpc	r25, r1
 2ea:	10 f0       	brcs	.+4      	; 0x2f0 <CalculaDutyCicleM2+0xa>
 2ec:	84 e6       	ldi	r24, 0x64	; 100
 2ee:	90 e0       	ldi	r25, 0x00	; 0
	if(porCentagem > 100)
		porCentagem = 100;
	
	uint16_t valor = porCentagem * 350;
 2f0:	4e e5       	ldi	r20, 0x5E	; 94
 2f2:	51 e0       	ldi	r21, 0x01	; 1
 2f4:	84 9f       	mul	r24, r20
 2f6:	90 01       	movw	r18, r0
 2f8:	85 9f       	mul	r24, r21
 2fa:	30 0d       	add	r19, r0
 2fc:	94 9f       	mul	r25, r20
 2fe:	30 0d       	add	r19, r0
 300:	11 24       	eor	r1, r1
		
	if(estadoCarro == ANDANDO_TRAS)
 302:	63 30       	cpi	r22, 0x03	; 3
 304:	31 f4       	brne	.+12     	; 0x312 <CalculaDutyCicleM2+0x2c>
		valor = 35000 - valor;
 306:	88 eb       	ldi	r24, 0xB8	; 184
 308:	98 e8       	ldi	r25, 0x88	; 136
 30a:	ac 01       	movw	r20, r24
 30c:	42 1b       	sub	r20, r18
 30e:	53 0b       	sbc	r21, r19
 310:	9a 01       	movw	r18, r20
			
	return valor;
}
 312:	c9 01       	movw	r24, r18
 314:	08 95       	ret

00000316 <ConfigInitServo>:

//----------------------------------------------------------------------------

void ConfigInitServo() {
	/*pinos OC0B e OC0A como saída*/
	DDRD |= (1 << DDD6) | (1 << DDD5);
 316:	8a b1       	in	r24, 0x0a	; 10
 318:	80 66       	ori	r24, 0x60	; 96
 31a:	8a b9       	out	0x0a, r24	; 10
	
	TCCR0A |= (1 << COM0A1) | (1 << COM0B1); // set none-inverting mode
 31c:	84 b5       	in	r24, 0x24	; 36
 31e:	80 6a       	ori	r24, 0xA0	; 160
 320:	84 bd       	out	0x24, r24	; 36
	TCCR0A |= (1 << WGM01) | (1 << WGM00);// set fast PWM Mode
 322:	84 b5       	in	r24, 0x24	; 36
 324:	83 60       	ori	r24, 0x03	; 3
 326:	84 bd       	out	0x24, r24	; 36
	
	TCCR0B |= (1 << CS02) | (1 << CS00); // set prescaler to 1024 (Freq Servo Motor 50Hz)
 328:	85 b5       	in	r24, 0x25	; 37
 32a:	85 60       	ori	r24, 0x05	; 5
 32c:	85 bd       	out	0x25, r24	; 37
	
	OCR0A = 23; // equivale a 1.5 ms do periodo do servo
 32e:	87 e1       	ldi	r24, 0x17	; 23
 330:	87 bd       	out	0x27, r24	; 39
	OCR0B = 23;
 332:	88 bd       	out	0x28, r24	; 40
 334:	08 95       	ret

00000336 <AnguloServo>:

//Recebe um valor entre 0-100%. 100% equivale a 180º
/*O frequencia do servo é de 50Hz período de 20ms com valor minimo de 1ms(5%) e máximo de 2ms(10%). O registrador OCR0x é de 8bits (0-255) o valor máximo para*/
void AnguloServo(
	Buffer* bufferRecepcao
){			
 336:	cf 93       	push	r28
 338:	df 93       	push	r29
	/*O período do duty do servo é de no mínimo 1ms e no máximo 2ms. A Fpwm = fclk_io / (prescaler*256) para o prescaler do timer de 1024 o período é de 16.384ms. 
	O contador do timer0 deve contar de 15,56 (1ms) até 31,12 (2ms)*/
	uint16_t anguloServoLeft = (uint16_t)(((bufferRecepcao->anguloServoLeft) * 0.15) + 15); //(Valor = (dutyCicle * 15) / 100) + 15
 33a:	fc 01       	movw	r30, r24
 33c:	60 89       	ldd	r22, Z+16	; 0x10
	uint16_t anguloServoRight = (uint16_t)(((bufferRecepcao->anguloServoRight) * 0.15) + 15); 
 33e:	d1 89       	ldd	r29, Z+17	; 0x11
void AnguloServo(
	Buffer* bufferRecepcao
){			
	/*O período do duty do servo é de no mínimo 1ms e no máximo 2ms. A Fpwm = fclk_io / (prescaler*256) para o prescaler do timer de 1024 o período é de 16.384ms. 
	O contador do timer0 deve contar de 15,56 (1ms) até 31,12 (2ms)*/
	uint16_t anguloServoLeft = (uint16_t)(((bufferRecepcao->anguloServoLeft) * 0.15) + 15); //(Valor = (dutyCicle * 15) / 100) + 15
 340:	70 e0       	ldi	r23, 0x00	; 0
 342:	80 e0       	ldi	r24, 0x00	; 0
 344:	90 e0       	ldi	r25, 0x00	; 0
 346:	0e 94 41 03 	call	0x682	; 0x682 <__floatsisf>
 34a:	2a e9       	ldi	r18, 0x9A	; 154
 34c:	39 e9       	ldi	r19, 0x99	; 153
 34e:	49 e1       	ldi	r20, 0x19	; 25
 350:	5e e3       	ldi	r21, 0x3E	; 62
 352:	0e 94 cd 03 	call	0x79a	; 0x79a <__mulsf3>
 356:	20 e0       	ldi	r18, 0x00	; 0
 358:	30 e0       	ldi	r19, 0x00	; 0
 35a:	40 e7       	ldi	r20, 0x70	; 112
 35c:	51 e4       	ldi	r21, 0x41	; 65
 35e:	0e 94 af 02 	call	0x55e	; 0x55e <__addsf3>
 362:	0e 94 13 03 	call	0x626	; 0x626 <__fixunssfsi>
 366:	c6 2f       	mov	r28, r22
	uint16_t anguloServoRight = (uint16_t)(((bufferRecepcao->anguloServoRight) * 0.15) + 15); 
 368:	6d 2f       	mov	r22, r29
 36a:	70 e0       	ldi	r23, 0x00	; 0
 36c:	80 e0       	ldi	r24, 0x00	; 0
 36e:	90 e0       	ldi	r25, 0x00	; 0
 370:	0e 94 41 03 	call	0x682	; 0x682 <__floatsisf>
 374:	2a e9       	ldi	r18, 0x9A	; 154
 376:	39 e9       	ldi	r19, 0x99	; 153
 378:	49 e1       	ldi	r20, 0x19	; 25
 37a:	5e e3       	ldi	r21, 0x3E	; 62
 37c:	0e 94 cd 03 	call	0x79a	; 0x79a <__mulsf3>
 380:	20 e0       	ldi	r18, 0x00	; 0
 382:	30 e0       	ldi	r19, 0x00	; 0
 384:	40 e7       	ldi	r20, 0x70	; 112
 386:	51 e4       	ldi	r21, 0x41	; 65
 388:	0e 94 af 02 	call	0x55e	; 0x55e <__addsf3>
 38c:	0e 94 13 03 	call	0x626	; 0x626 <__fixunssfsi>
	
	unsigned char left = (unsigned char) anguloServoLeft; 
	unsigned char right = (unsigned char) anguloServoRight;
	
	OCR0A = left;
 390:	c7 bd       	out	0x27, r28	; 39
	OCR0B = right;
 392:	68 bd       	out	0x28, r22	; 40
}
 394:	df 91       	pop	r29
 396:	cf 91       	pop	r28
 398:	08 95       	ret

0000039a <AndandoFrente>:
//----------------------------------------------------------------------------

void AndandoFrente(
	Buffer* bufferRecepcao
)
{
 39a:	cf 93       	push	r28
 39c:	df 93       	push	r29
 39e:	ec 01       	movw	r28, r24
	#else
		//round up by default
		__ticks_dc = (uint32_t)(ceil(fabs(__tmp)));
	#endif

	__builtin_avr_delay_cycles(__ticks_dc);
 3a0:	85 e3       	ldi	r24, 0x35	; 53
 3a2:	8a 95       	dec	r24
 3a4:	f1 f7       	brne	.-4      	; 0x3a2 <AndandoFrente+0x8>
 3a6:	00 00       	nop
	_delay_us(10);
	set_bit(PORTB,ENA_ENB);	
 3a8:	2c 9a       	sbi	0x05, 4	; 5
	clr_bit(PORTB,IN2_IN4);
 3aa:	2b 98       	cbi	0x05, 3	; 5
	OCR1A = CalculaDutyCicleM1(bufferRecepcao->dutyCicleM1, bufferRecepcao->estadoCarro);
 3ac:	6f 85       	ldd	r22, Y+15	; 0x0f
 3ae:	89 85       	ldd	r24, Y+9	; 0x09
 3b0:	9a 85       	ldd	r25, Y+10	; 0x0a
 3b2:	0e 94 5b 01 	call	0x2b6	; 0x2b6 <CalculaDutyCicleM1>
 3b6:	90 93 89 00 	sts	0x0089, r25
 3ba:	80 93 88 00 	sts	0x0088, r24
	OCR1B = CalculaDutyCicleM2(bufferRecepcao->dutyCicleM2, bufferRecepcao->estadoCarro);
 3be:	6f 85       	ldd	r22, Y+15	; 0x0f
 3c0:	8b 85       	ldd	r24, Y+11	; 0x0b
 3c2:	9c 85       	ldd	r25, Y+12	; 0x0c
 3c4:	0e 94 73 01 	call	0x2e6	; 0x2e6 <CalculaDutyCicleM2>
 3c8:	90 93 8b 00 	sts	0x008B, r25
 3cc:	80 93 8a 00 	sts	0x008A, r24
}
 3d0:	df 91       	pop	r29
 3d2:	cf 91       	pop	r28
 3d4:	08 95       	ret

000003d6 <AndandoTras>:
//----------------------------------------------------------------------------

void AndandoTras(
	Buffer* bufferRecepcao
)
{
 3d6:	cf 93       	push	r28
 3d8:	df 93       	push	r29
 3da:	ec 01       	movw	r28, r24
 3dc:	85 e3       	ldi	r24, 0x35	; 53
 3de:	8a 95       	dec	r24
 3e0:	f1 f7       	brne	.-4      	; 0x3de <AndandoTras+0x8>
 3e2:	00 00       	nop
	_delay_us(10);
	set_bit(PORTB,ENA_ENB);	
 3e4:	2c 9a       	sbi	0x05, 4	; 5
	set_bit(PORTB,IN2_IN4);
 3e6:	2b 9a       	sbi	0x05, 3	; 5
	OCR1A = CalculaDutyCicleM1(bufferRecepcao->dutyCicleM1, bufferRecepcao->estadoCarro);
 3e8:	6f 85       	ldd	r22, Y+15	; 0x0f
 3ea:	89 85       	ldd	r24, Y+9	; 0x09
 3ec:	9a 85       	ldd	r25, Y+10	; 0x0a
 3ee:	0e 94 5b 01 	call	0x2b6	; 0x2b6 <CalculaDutyCicleM1>
 3f2:	90 93 89 00 	sts	0x0089, r25
 3f6:	80 93 88 00 	sts	0x0088, r24
	OCR1B = CalculaDutyCicleM2(bufferRecepcao->dutyCicleM2, bufferRecepcao->estadoCarro);
 3fa:	6f 85       	ldd	r22, Y+15	; 0x0f
 3fc:	8b 85       	ldd	r24, Y+11	; 0x0b
 3fe:	9c 85       	ldd	r25, Y+12	; 0x0c
 400:	0e 94 73 01 	call	0x2e6	; 0x2e6 <CalculaDutyCicleM2>
 404:	90 93 8b 00 	sts	0x008B, r25
 408:	80 93 8a 00 	sts	0x008A, r24
}
 40c:	df 91       	pop	r29
 40e:	cf 91       	pop	r28
 410:	08 95       	ret

00000412 <CarroParado>:
 412:	85 e3       	ldi	r24, 0x35	; 53
 414:	8a 95       	dec	r24
 416:	f1 f7       	brne	.-4      	; 0x414 <CarroParado+0x2>
 418:	00 00       	nop
//----------------------------------------------------------------------------

void CarroParado()
{
	_delay_us(10);
	clr_bit(PORTB,ENA_ENB);	
 41a:	2c 98       	cbi	0x05, 4	; 5
	set_bit(PORTB,IN1);	
 41c:	2a 9a       	sbi	0x05, 2	; 5
	set_bit(PORTB,IN3);	
 41e:	29 9a       	sbi	0x05, 1	; 5
	set_bit(PORTB,IN2_IN4);	
 420:	2b 9a       	sbi	0x05, 3	; 5
 422:	08 95       	ret

00000424 <ConfiguracoesDirecaoInit>:
void ConfiguracoesDirecaoInit(
	Buffer* bufferRecepcao
)
{	
	/*pinos OC1B e OC1A como saída*/
	DDRB |= (1 << IN2_IN4) | (1 << ENA_ENB) | (1 << IN1) | (1 << IN3);	
 424:	84 b1       	in	r24, 0x04	; 4
 426:	8e 61       	ori	r24, 0x1E	; 30
 428:	84 b9       	out	0x04, r24	; 4
	PORTB |= (1 << IN2_IN4) | (1 << ENA_ENB);		
 42a:	85 b1       	in	r24, 0x05	; 5
 42c:	88 61       	ori	r24, 0x18	; 24
 42e:	85 b9       	out	0x05, r24	; 5
	PORTB &= (~(1 << IN1)) & (~(1 << IN3)); 
 430:	85 b1       	in	r24, 0x05	; 5
 432:	89 7f       	andi	r24, 0xF9	; 249
 434:	85 b9       	out	0x05, r24	; 5
	
	/*Pino relé como saída*/	
	RELE_DDR |= (1 << RELE_CHAVE_PAINEL_BATERIA) | (1 << RELE_TENSAO_PAINEL);
 436:	8a b1       	in	r24, 0x0a	; 10
 438:	88 61       	ori	r24, 0x18	; 24
 43a:	8a b9       	out	0x0a, r24	; 10
	
	/*Seleciona a fonte de alimentação da bateria*/
	DESATIVA_RELE(RELE_CHAVE_PAINEL_BATERIA);
 43c:	5b 98       	cbi	0x0b, 3	; 11
	
	/*Desliga o painel*/
	DESATIVA_RELE(RELE_TENSAO_PAINEL);
 43e:	5c 98       	cbi	0x0b, 4	; 11
		
	TCCR1A = 0b10100010;		//PWM não invertido nos pinos OC1A e OC1B
 440:	82 ea       	ldi	r24, 0xA2	; 162
 442:	80 93 80 00 	sts	0x0080, r24
	TCCR1B = 0b00011001;		//liga TC1, prescaler = 1
 446:	89 e1       	ldi	r24, 0x19	; 25
 448:	80 93 81 00 	sts	0x0081, r24
	ICR1 = 35000;				//valor máximo para contagem
 44c:	88 eb       	ldi	r24, 0xB8	; 184
 44e:	98 e8       	ldi	r25, 0x88	; 136
 450:	90 93 87 00 	sts	0x0087, r25
 454:	80 93 86 00 	sts	0x0086, r24
	OCR1A = 0;				//controle do ciclo ativo do PWM 0C1A
 458:	10 92 89 00 	sts	0x0089, r1
 45c:	10 92 88 00 	sts	0x0088, r1
	OCR1B = 0;
 460:	10 92 8b 00 	sts	0x008B, r1
 464:	10 92 8a 00 	sts	0x008A, r1
			
	ConfigInitServo();
 468:	0e 94 8b 01 	call	0x316	; 0x316 <ConfigInitServo>
					
	CarroParado();
 46c:	0e 94 09 02 	call	0x412	; 0x412 <CarroParado>
 470:	08 95       	ret

00000472 <DirecaoCarro>:
//----------------------------------------------------------------------------

void DirecaoCarro(
	Buffer* bufferRecepcao
)
{		
 472:	cf 93       	push	r28
 474:	df 93       	push	r29
 476:	ec 01       	movw	r28, r24
	switch (bufferRecepcao->estadoCarro) {
 478:	8f 85       	ldd	r24, Y+15	; 0x0f
 47a:	82 30       	cpi	r24, 0x02	; 2
 47c:	b9 f0       	breq	.+46     	; 0x4ac <DirecaoCarro+0x3a>
 47e:	83 30       	cpi	r24, 0x03	; 3
 480:	81 f1       	breq	.+96     	; 0x4e2 <DirecaoCarro+0x70>
 482:	81 30       	cpi	r24, 0x01	; 1
 484:	09 f0       	breq	.+2      	; 0x488 <DirecaoCarro+0x16>
 486:	47 c0       	rjmp	.+142    	; 0x516 <DirecaoCarro+0xa4>
		case PARADO:
			if ( bufferRecepcao->direcao == 'F') {
 488:	88 85       	ldd	r24, Y+8	; 0x08
 48a:	86 34       	cpi	r24, 0x46	; 70
 48c:	31 f4       	brne	.+12     	; 0x49a <DirecaoCarro+0x28>
				bufferRecepcao->estadoCarro = ANDANDO_FRENTE;
 48e:	82 e0       	ldi	r24, 0x02	; 2
 490:	8f 87       	std	Y+15, r24	; 0x0f
				AndandoFrente(bufferRecepcao);
 492:	ce 01       	movw	r24, r28
 494:	0e 94 cd 01 	call	0x39a	; 0x39a <AndandoFrente>
 498:	3e c0       	rjmp	.+124    	; 0x516 <DirecaoCarro+0xa4>
			}				
			else if ( bufferRecepcao->direcao == 'T') {
 49a:	88 85       	ldd	r24, Y+8	; 0x08
 49c:	84 35       	cpi	r24, 0x54	; 84
 49e:	d9 f5       	brne	.+118    	; 0x516 <DirecaoCarro+0xa4>
				bufferRecepcao->estadoCarro = ANDANDO_TRAS;
 4a0:	83 e0       	ldi	r24, 0x03	; 3
 4a2:	8f 87       	std	Y+15, r24	; 0x0f
				AndandoTras(bufferRecepcao);		
 4a4:	ce 01       	movw	r24, r28
 4a6:	0e 94 eb 01 	call	0x3d6	; 0x3d6 <AndandoTras>
 4aa:	35 c0       	rjmp	.+106    	; 0x516 <DirecaoCarro+0xa4>
			}			
		break;
		
		case ANDANDO_FRENTE:	
							
			if (bufferRecepcao->direcao == 'F'){
 4ac:	88 85       	ldd	r24, Y+8	; 0x08
 4ae:	86 34       	cpi	r24, 0x46	; 70
 4b0:	99 f4       	brne	.+38     	; 0x4d8 <DirecaoCarro+0x66>
				OCR1A = CalculaDutyCicleM1(bufferRecepcao->dutyCicleM1, bufferRecepcao->estadoCarro);
 4b2:	6f 85       	ldd	r22, Y+15	; 0x0f
 4b4:	89 85       	ldd	r24, Y+9	; 0x09
 4b6:	9a 85       	ldd	r25, Y+10	; 0x0a
 4b8:	0e 94 5b 01 	call	0x2b6	; 0x2b6 <CalculaDutyCicleM1>
 4bc:	90 93 89 00 	sts	0x0089, r25
 4c0:	80 93 88 00 	sts	0x0088, r24
				OCR1B = CalculaDutyCicleM2(bufferRecepcao->dutyCicleM2, bufferRecepcao->estadoCarro);
 4c4:	6f 85       	ldd	r22, Y+15	; 0x0f
 4c6:	8b 85       	ldd	r24, Y+11	; 0x0b
 4c8:	9c 85       	ldd	r25, Y+12	; 0x0c
 4ca:	0e 94 73 01 	call	0x2e6	; 0x2e6 <CalculaDutyCicleM2>
 4ce:	90 93 8b 00 	sts	0x008B, r25
 4d2:	80 93 8a 00 	sts	0x008A, r24
 4d6:	1f c0       	rjmp	.+62     	; 0x516 <DirecaoCarro+0xa4>
			}	
			else {
				bufferRecepcao->estadoCarro = PARADO;
 4d8:	81 e0       	ldi	r24, 0x01	; 1
 4da:	8f 87       	std	Y+15, r24	; 0x0f
				CarroParado();
 4dc:	0e 94 09 02 	call	0x412	; 0x412 <CarroParado>
 4e0:	1a c0       	rjmp	.+52     	; 0x516 <DirecaoCarro+0xa4>
					
		break;
			
		case ANDANDO_TRAS:
						
			if(bufferRecepcao->direcao == 'T'){
 4e2:	88 85       	ldd	r24, Y+8	; 0x08
 4e4:	84 35       	cpi	r24, 0x54	; 84
 4e6:	99 f4       	brne	.+38     	; 0x50e <DirecaoCarro+0x9c>
				OCR1A = CalculaDutyCicleM1(bufferRecepcao->dutyCicleM1, bufferRecepcao->estadoCarro);
 4e8:	6f 85       	ldd	r22, Y+15	; 0x0f
 4ea:	89 85       	ldd	r24, Y+9	; 0x09
 4ec:	9a 85       	ldd	r25, Y+10	; 0x0a
 4ee:	0e 94 5b 01 	call	0x2b6	; 0x2b6 <CalculaDutyCicleM1>
 4f2:	90 93 89 00 	sts	0x0089, r25
 4f6:	80 93 88 00 	sts	0x0088, r24
				OCR1B = CalculaDutyCicleM2(bufferRecepcao->dutyCicleM2, bufferRecepcao->estadoCarro);
 4fa:	6f 85       	ldd	r22, Y+15	; 0x0f
 4fc:	8b 85       	ldd	r24, Y+11	; 0x0b
 4fe:	9c 85       	ldd	r25, Y+12	; 0x0c
 500:	0e 94 73 01 	call	0x2e6	; 0x2e6 <CalculaDutyCicleM2>
 504:	90 93 8b 00 	sts	0x008B, r25
 508:	80 93 8a 00 	sts	0x008A, r24
 50c:	04 c0       	rjmp	.+8      	; 0x516 <DirecaoCarro+0xa4>
			}	
			else{
				bufferRecepcao->estadoCarro = PARADO;
 50e:	81 e0       	ldi	r24, 0x01	; 1
 510:	8f 87       	std	Y+15, r24	; 0x0f
				CarroParado();
 512:	0e 94 09 02 	call	0x412	; 0x412 <CarroParado>
			}		
		break;			
	}		
}		
 516:	df 91       	pop	r29
 518:	cf 91       	pop	r28
 51a:	08 95       	ret

0000051c <TransmitiBuffer>:
void TransmitiBuffer(
	Buffer* buffer
)
{	
	fflush(stdout);
	stdout = &stdoutUART;
 51c:	80 e0       	ldi	r24, 0x00	; 0
 51e:	91 e0       	ldi	r25, 0x01	; 1
 520:	90 93 2b 01 	sts	0x012B, r25
 524:	80 93 2a 01 	sts	0x012A, r24
		
	printf("z");
 528:	8a e7       	ldi	r24, 0x7A	; 122
 52a:	90 e0       	ldi	r25, 0x00	; 0
 52c:	0e 94 30 04 	call	0x860	; 0x860 <putchar>
 530:	08 95       	ret

00000532 <Usart_Transmit_Printf>:
//---------------------------------------------------------------------------

void Usart_Transmit_Printf(char dado, FILE *stream)
{
	/*wait for empty transmit buffer*/
	while (!( UCSR0A & (1<<UDRE0)) );
 532:	e0 ec       	ldi	r30, 0xC0	; 192
 534:	f0 e0       	ldi	r31, 0x00	; 0
 536:	90 81       	ld	r25, Z
 538:	95 ff       	sbrs	r25, 5
 53a:	fd cf       	rjmp	.-6      	; 0x536 <Usart_Transmit_Printf+0x4>
	
	/*put data into buffer, sends the data*/
	UDR0 = dado;
 53c:	80 93 c6 00 	sts	0x00C6, r24
 540:	08 95       	ret

00000542 <Usart_Init>:
{
	/*UBRR - Usart Baud Rate Register[UBRR] 12 bits
	* Bit 15:12		Reservado	Para uso futuro. Deve ser escrito 0. 
	* Bit 11:0		UBRR		Baud Rate
	*/
	UBRR0H = (unsigned char) (ubrr >> 8);        
 542:	90 93 c5 00 	sts	0x00C5, r25
	UBRR0L = (unsigned char) ubrr;
 546:	80 93 c4 00 	sts	0x00C4, r24
	* bit 2		0:	  R:	UPEn:	0=Sem erro, 1=Erro de paridade
	* bit 1		0:	R/W:	U2Xn:	0=desabilita, 1=Dobra velocidade TX (apenas modo assincrono)	
	* bit 0		0:	  R:	MPCMn:	0=Desabilita, 1=Modo comunicação multi processo
	*OBS: sempre zerar bit 4:2 quando escrever no UCSR0A.
	*/
	UCSR0A = 0b00000000;
 54a:	10 92 c0 00 	sts	0x00C0, r1
	* bit 3		0:	R/W:	TXENn:		0=Des. TX, 1=Habilita
	* bit 2		0:	R/W:	UCSZn2:		Seta bits tamanho do frame. Combinado com UCSZn1 e UCSZn0
	* bit 1		0:	  R:	RXB8n:		9° bit RX quando frame 9 bits
	* bit 0		0:	R/W:	TXB8n:		9° bit TX quando frame 9 bits
	*/				
	UCSR0B = 0b10011000;
 54e:	88 e9       	ldi	r24, 0x98	; 152
 550:	80 93 c1 00 	sts	0x00C1, r24
	* bit 2-1	0:	R/W:	UCSZn1:0:	Combinado com UCSZn2:0.	100, 101, 110= Reservados.
	*									000=Frame Cinco bits, 001=Seis, 010= Sete, 011=Oito, 111=Nove
	* bit 0		0:	R/W:	UCPOLn:		Somento modo Sincrono. 0=TX borda subido e RX descida.
															   1=TX borda descida e RX subida.
	*/
	UCSR0C = 0b00000110;
 554:	86 e0       	ldi	r24, 0x06	; 6
 556:	80 93 c2 00 	sts	0x00C2, r24
 55a:	08 95       	ret

0000055c <__subsf3>:
 55c:	50 58       	subi	r21, 0x80	; 128

0000055e <__addsf3>:
 55e:	bb 27       	eor	r27, r27
 560:	aa 27       	eor	r26, r26
 562:	0e d0       	rcall	.+28     	; 0x580 <__addsf3x>
 564:	e0 c0       	rjmp	.+448    	; 0x726 <__fp_round>
 566:	d1 d0       	rcall	.+418    	; 0x70a <__fp_pscA>
 568:	30 f0       	brcs	.+12     	; 0x576 <__addsf3+0x18>
 56a:	d6 d0       	rcall	.+428    	; 0x718 <__fp_pscB>
 56c:	20 f0       	brcs	.+8      	; 0x576 <__addsf3+0x18>
 56e:	31 f4       	brne	.+12     	; 0x57c <__addsf3+0x1e>
 570:	9f 3f       	cpi	r25, 0xFF	; 255
 572:	11 f4       	brne	.+4      	; 0x578 <__addsf3+0x1a>
 574:	1e f4       	brtc	.+6      	; 0x57c <__addsf3+0x1e>
 576:	c6 c0       	rjmp	.+396    	; 0x704 <__fp_nan>
 578:	0e f4       	brtc	.+2      	; 0x57c <__addsf3+0x1e>
 57a:	e0 95       	com	r30
 57c:	e7 fb       	bst	r30, 7
 57e:	bc c0       	rjmp	.+376    	; 0x6f8 <__fp_inf>

00000580 <__addsf3x>:
 580:	e9 2f       	mov	r30, r25
 582:	e2 d0       	rcall	.+452    	; 0x748 <__fp_split3>
 584:	80 f3       	brcs	.-32     	; 0x566 <__addsf3+0x8>
 586:	ba 17       	cp	r27, r26
 588:	62 07       	cpc	r22, r18
 58a:	73 07       	cpc	r23, r19
 58c:	84 07       	cpc	r24, r20
 58e:	95 07       	cpc	r25, r21
 590:	18 f0       	brcs	.+6      	; 0x598 <__addsf3x+0x18>
 592:	71 f4       	brne	.+28     	; 0x5b0 <__addsf3x+0x30>
 594:	9e f5       	brtc	.+102    	; 0x5fc <__addsf3x+0x7c>
 596:	fa c0       	rjmp	.+500    	; 0x78c <__fp_zero>
 598:	0e f4       	brtc	.+2      	; 0x59c <__addsf3x+0x1c>
 59a:	e0 95       	com	r30
 59c:	0b 2e       	mov	r0, r27
 59e:	ba 2f       	mov	r27, r26
 5a0:	a0 2d       	mov	r26, r0
 5a2:	0b 01       	movw	r0, r22
 5a4:	b9 01       	movw	r22, r18
 5a6:	90 01       	movw	r18, r0
 5a8:	0c 01       	movw	r0, r24
 5aa:	ca 01       	movw	r24, r20
 5ac:	a0 01       	movw	r20, r0
 5ae:	11 24       	eor	r1, r1
 5b0:	ff 27       	eor	r31, r31
 5b2:	59 1b       	sub	r21, r25
 5b4:	99 f0       	breq	.+38     	; 0x5dc <__addsf3x+0x5c>
 5b6:	59 3f       	cpi	r21, 0xF9	; 249
 5b8:	50 f4       	brcc	.+20     	; 0x5ce <__addsf3x+0x4e>
 5ba:	50 3e       	cpi	r21, 0xE0	; 224
 5bc:	68 f1       	brcs	.+90     	; 0x618 <__addsf3x+0x98>
 5be:	1a 16       	cp	r1, r26
 5c0:	f0 40       	sbci	r31, 0x00	; 0
 5c2:	a2 2f       	mov	r26, r18
 5c4:	23 2f       	mov	r18, r19
 5c6:	34 2f       	mov	r19, r20
 5c8:	44 27       	eor	r20, r20
 5ca:	58 5f       	subi	r21, 0xF8	; 248
 5cc:	f3 cf       	rjmp	.-26     	; 0x5b4 <__addsf3x+0x34>
 5ce:	46 95       	lsr	r20
 5d0:	37 95       	ror	r19
 5d2:	27 95       	ror	r18
 5d4:	a7 95       	ror	r26
 5d6:	f0 40       	sbci	r31, 0x00	; 0
 5d8:	53 95       	inc	r21
 5da:	c9 f7       	brne	.-14     	; 0x5ce <__addsf3x+0x4e>
 5dc:	7e f4       	brtc	.+30     	; 0x5fc <__addsf3x+0x7c>
 5de:	1f 16       	cp	r1, r31
 5e0:	ba 0b       	sbc	r27, r26
 5e2:	62 0b       	sbc	r22, r18
 5e4:	73 0b       	sbc	r23, r19
 5e6:	84 0b       	sbc	r24, r20
 5e8:	ba f0       	brmi	.+46     	; 0x618 <__addsf3x+0x98>
 5ea:	91 50       	subi	r25, 0x01	; 1
 5ec:	a1 f0       	breq	.+40     	; 0x616 <__addsf3x+0x96>
 5ee:	ff 0f       	add	r31, r31
 5f0:	bb 1f       	adc	r27, r27
 5f2:	66 1f       	adc	r22, r22
 5f4:	77 1f       	adc	r23, r23
 5f6:	88 1f       	adc	r24, r24
 5f8:	c2 f7       	brpl	.-16     	; 0x5ea <__addsf3x+0x6a>
 5fa:	0e c0       	rjmp	.+28     	; 0x618 <__addsf3x+0x98>
 5fc:	ba 0f       	add	r27, r26
 5fe:	62 1f       	adc	r22, r18
 600:	73 1f       	adc	r23, r19
 602:	84 1f       	adc	r24, r20
 604:	48 f4       	brcc	.+18     	; 0x618 <__addsf3x+0x98>
 606:	87 95       	ror	r24
 608:	77 95       	ror	r23
 60a:	67 95       	ror	r22
 60c:	b7 95       	ror	r27
 60e:	f7 95       	ror	r31
 610:	9e 3f       	cpi	r25, 0xFE	; 254
 612:	08 f0       	brcs	.+2      	; 0x616 <__addsf3x+0x96>
 614:	b3 cf       	rjmp	.-154    	; 0x57c <__addsf3+0x1e>
 616:	93 95       	inc	r25
 618:	88 0f       	add	r24, r24
 61a:	08 f0       	brcs	.+2      	; 0x61e <__addsf3x+0x9e>
 61c:	99 27       	eor	r25, r25
 61e:	ee 0f       	add	r30, r30
 620:	97 95       	ror	r25
 622:	87 95       	ror	r24
 624:	08 95       	ret

00000626 <__fixunssfsi>:
 626:	98 d0       	rcall	.+304    	; 0x758 <__fp_splitA>
 628:	88 f0       	brcs	.+34     	; 0x64c <__fixunssfsi+0x26>
 62a:	9f 57       	subi	r25, 0x7F	; 127
 62c:	90 f0       	brcs	.+36     	; 0x652 <__fixunssfsi+0x2c>
 62e:	b9 2f       	mov	r27, r25
 630:	99 27       	eor	r25, r25
 632:	b7 51       	subi	r27, 0x17	; 23
 634:	a0 f0       	brcs	.+40     	; 0x65e <__fixunssfsi+0x38>
 636:	d1 f0       	breq	.+52     	; 0x66c <__fixunssfsi+0x46>
 638:	66 0f       	add	r22, r22
 63a:	77 1f       	adc	r23, r23
 63c:	88 1f       	adc	r24, r24
 63e:	99 1f       	adc	r25, r25
 640:	1a f0       	brmi	.+6      	; 0x648 <__fixunssfsi+0x22>
 642:	ba 95       	dec	r27
 644:	c9 f7       	brne	.-14     	; 0x638 <__fixunssfsi+0x12>
 646:	12 c0       	rjmp	.+36     	; 0x66c <__fixunssfsi+0x46>
 648:	b1 30       	cpi	r27, 0x01	; 1
 64a:	81 f0       	breq	.+32     	; 0x66c <__fixunssfsi+0x46>
 64c:	9f d0       	rcall	.+318    	; 0x78c <__fp_zero>
 64e:	b1 e0       	ldi	r27, 0x01	; 1
 650:	08 95       	ret
 652:	9c c0       	rjmp	.+312    	; 0x78c <__fp_zero>
 654:	67 2f       	mov	r22, r23
 656:	78 2f       	mov	r23, r24
 658:	88 27       	eor	r24, r24
 65a:	b8 5f       	subi	r27, 0xF8	; 248
 65c:	39 f0       	breq	.+14     	; 0x66c <__fixunssfsi+0x46>
 65e:	b9 3f       	cpi	r27, 0xF9	; 249
 660:	cc f3       	brlt	.-14     	; 0x654 <__fixunssfsi+0x2e>
 662:	86 95       	lsr	r24
 664:	77 95       	ror	r23
 666:	67 95       	ror	r22
 668:	b3 95       	inc	r27
 66a:	d9 f7       	brne	.-10     	; 0x662 <__fixunssfsi+0x3c>
 66c:	3e f4       	brtc	.+14     	; 0x67c <__fixunssfsi+0x56>
 66e:	90 95       	com	r25
 670:	80 95       	com	r24
 672:	70 95       	com	r23
 674:	61 95       	neg	r22
 676:	7f 4f       	sbci	r23, 0xFF	; 255
 678:	8f 4f       	sbci	r24, 0xFF	; 255
 67a:	9f 4f       	sbci	r25, 0xFF	; 255
 67c:	08 95       	ret

0000067e <__floatunsisf>:
 67e:	e8 94       	clt
 680:	09 c0       	rjmp	.+18     	; 0x694 <__floatsisf+0x12>

00000682 <__floatsisf>:
 682:	97 fb       	bst	r25, 7
 684:	3e f4       	brtc	.+14     	; 0x694 <__floatsisf+0x12>
 686:	90 95       	com	r25
 688:	80 95       	com	r24
 68a:	70 95       	com	r23
 68c:	61 95       	neg	r22
 68e:	7f 4f       	sbci	r23, 0xFF	; 255
 690:	8f 4f       	sbci	r24, 0xFF	; 255
 692:	9f 4f       	sbci	r25, 0xFF	; 255
 694:	99 23       	and	r25, r25
 696:	a9 f0       	breq	.+42     	; 0x6c2 <__floatsisf+0x40>
 698:	f9 2f       	mov	r31, r25
 69a:	96 e9       	ldi	r25, 0x96	; 150
 69c:	bb 27       	eor	r27, r27
 69e:	93 95       	inc	r25
 6a0:	f6 95       	lsr	r31
 6a2:	87 95       	ror	r24
 6a4:	77 95       	ror	r23
 6a6:	67 95       	ror	r22
 6a8:	b7 95       	ror	r27
 6aa:	f1 11       	cpse	r31, r1
 6ac:	f8 cf       	rjmp	.-16     	; 0x69e <__floatsisf+0x1c>
 6ae:	fa f4       	brpl	.+62     	; 0x6ee <__floatsisf+0x6c>
 6b0:	bb 0f       	add	r27, r27
 6b2:	11 f4       	brne	.+4      	; 0x6b8 <__floatsisf+0x36>
 6b4:	60 ff       	sbrs	r22, 0
 6b6:	1b c0       	rjmp	.+54     	; 0x6ee <__floatsisf+0x6c>
 6b8:	6f 5f       	subi	r22, 0xFF	; 255
 6ba:	7f 4f       	sbci	r23, 0xFF	; 255
 6bc:	8f 4f       	sbci	r24, 0xFF	; 255
 6be:	9f 4f       	sbci	r25, 0xFF	; 255
 6c0:	16 c0       	rjmp	.+44     	; 0x6ee <__floatsisf+0x6c>
 6c2:	88 23       	and	r24, r24
 6c4:	11 f0       	breq	.+4      	; 0x6ca <__floatsisf+0x48>
 6c6:	96 e9       	ldi	r25, 0x96	; 150
 6c8:	11 c0       	rjmp	.+34     	; 0x6ec <__floatsisf+0x6a>
 6ca:	77 23       	and	r23, r23
 6cc:	21 f0       	breq	.+8      	; 0x6d6 <__floatsisf+0x54>
 6ce:	9e e8       	ldi	r25, 0x8E	; 142
 6d0:	87 2f       	mov	r24, r23
 6d2:	76 2f       	mov	r23, r22
 6d4:	05 c0       	rjmp	.+10     	; 0x6e0 <__floatsisf+0x5e>
 6d6:	66 23       	and	r22, r22
 6d8:	71 f0       	breq	.+28     	; 0x6f6 <__floatsisf+0x74>
 6da:	96 e8       	ldi	r25, 0x86	; 134
 6dc:	86 2f       	mov	r24, r22
 6de:	70 e0       	ldi	r23, 0x00	; 0
 6e0:	60 e0       	ldi	r22, 0x00	; 0
 6e2:	2a f0       	brmi	.+10     	; 0x6ee <__floatsisf+0x6c>
 6e4:	9a 95       	dec	r25
 6e6:	66 0f       	add	r22, r22
 6e8:	77 1f       	adc	r23, r23
 6ea:	88 1f       	adc	r24, r24
 6ec:	da f7       	brpl	.-10     	; 0x6e4 <__floatsisf+0x62>
 6ee:	88 0f       	add	r24, r24
 6f0:	96 95       	lsr	r25
 6f2:	87 95       	ror	r24
 6f4:	97 f9       	bld	r25, 7
 6f6:	08 95       	ret

000006f8 <__fp_inf>:
 6f8:	97 f9       	bld	r25, 7
 6fa:	9f 67       	ori	r25, 0x7F	; 127
 6fc:	80 e8       	ldi	r24, 0x80	; 128
 6fe:	70 e0       	ldi	r23, 0x00	; 0
 700:	60 e0       	ldi	r22, 0x00	; 0
 702:	08 95       	ret

00000704 <__fp_nan>:
 704:	9f ef       	ldi	r25, 0xFF	; 255
 706:	80 ec       	ldi	r24, 0xC0	; 192
 708:	08 95       	ret

0000070a <__fp_pscA>:
 70a:	00 24       	eor	r0, r0
 70c:	0a 94       	dec	r0
 70e:	16 16       	cp	r1, r22
 710:	17 06       	cpc	r1, r23
 712:	18 06       	cpc	r1, r24
 714:	09 06       	cpc	r0, r25
 716:	08 95       	ret

00000718 <__fp_pscB>:
 718:	00 24       	eor	r0, r0
 71a:	0a 94       	dec	r0
 71c:	12 16       	cp	r1, r18
 71e:	13 06       	cpc	r1, r19
 720:	14 06       	cpc	r1, r20
 722:	05 06       	cpc	r0, r21
 724:	08 95       	ret

00000726 <__fp_round>:
 726:	09 2e       	mov	r0, r25
 728:	03 94       	inc	r0
 72a:	00 0c       	add	r0, r0
 72c:	11 f4       	brne	.+4      	; 0x732 <__fp_round+0xc>
 72e:	88 23       	and	r24, r24
 730:	52 f0       	brmi	.+20     	; 0x746 <__fp_round+0x20>
 732:	bb 0f       	add	r27, r27
 734:	40 f4       	brcc	.+16     	; 0x746 <__fp_round+0x20>
 736:	bf 2b       	or	r27, r31
 738:	11 f4       	brne	.+4      	; 0x73e <__fp_round+0x18>
 73a:	60 ff       	sbrs	r22, 0
 73c:	04 c0       	rjmp	.+8      	; 0x746 <__fp_round+0x20>
 73e:	6f 5f       	subi	r22, 0xFF	; 255
 740:	7f 4f       	sbci	r23, 0xFF	; 255
 742:	8f 4f       	sbci	r24, 0xFF	; 255
 744:	9f 4f       	sbci	r25, 0xFF	; 255
 746:	08 95       	ret

00000748 <__fp_split3>:
 748:	57 fd       	sbrc	r21, 7
 74a:	90 58       	subi	r25, 0x80	; 128
 74c:	44 0f       	add	r20, r20
 74e:	55 1f       	adc	r21, r21
 750:	59 f0       	breq	.+22     	; 0x768 <__fp_splitA+0x10>
 752:	5f 3f       	cpi	r21, 0xFF	; 255
 754:	71 f0       	breq	.+28     	; 0x772 <__fp_splitA+0x1a>
 756:	47 95       	ror	r20

00000758 <__fp_splitA>:
 758:	88 0f       	add	r24, r24
 75a:	97 fb       	bst	r25, 7
 75c:	99 1f       	adc	r25, r25
 75e:	61 f0       	breq	.+24     	; 0x778 <__fp_splitA+0x20>
 760:	9f 3f       	cpi	r25, 0xFF	; 255
 762:	79 f0       	breq	.+30     	; 0x782 <__fp_splitA+0x2a>
 764:	87 95       	ror	r24
 766:	08 95       	ret
 768:	12 16       	cp	r1, r18
 76a:	13 06       	cpc	r1, r19
 76c:	14 06       	cpc	r1, r20
 76e:	55 1f       	adc	r21, r21
 770:	f2 cf       	rjmp	.-28     	; 0x756 <__fp_split3+0xe>
 772:	46 95       	lsr	r20
 774:	f1 df       	rcall	.-30     	; 0x758 <__fp_splitA>
 776:	08 c0       	rjmp	.+16     	; 0x788 <__fp_splitA+0x30>
 778:	16 16       	cp	r1, r22
 77a:	17 06       	cpc	r1, r23
 77c:	18 06       	cpc	r1, r24
 77e:	99 1f       	adc	r25, r25
 780:	f1 cf       	rjmp	.-30     	; 0x764 <__fp_splitA+0xc>
 782:	86 95       	lsr	r24
 784:	71 05       	cpc	r23, r1
 786:	61 05       	cpc	r22, r1
 788:	08 94       	sec
 78a:	08 95       	ret

0000078c <__fp_zero>:
 78c:	e8 94       	clt

0000078e <__fp_szero>:
 78e:	bb 27       	eor	r27, r27
 790:	66 27       	eor	r22, r22
 792:	77 27       	eor	r23, r23
 794:	cb 01       	movw	r24, r22
 796:	97 f9       	bld	r25, 7
 798:	08 95       	ret

0000079a <__mulsf3>:
 79a:	0b d0       	rcall	.+22     	; 0x7b2 <__mulsf3x>
 79c:	c4 cf       	rjmp	.-120    	; 0x726 <__fp_round>
 79e:	b5 df       	rcall	.-150    	; 0x70a <__fp_pscA>
 7a0:	28 f0       	brcs	.+10     	; 0x7ac <__mulsf3+0x12>
 7a2:	ba df       	rcall	.-140    	; 0x718 <__fp_pscB>
 7a4:	18 f0       	brcs	.+6      	; 0x7ac <__mulsf3+0x12>
 7a6:	95 23       	and	r25, r21
 7a8:	09 f0       	breq	.+2      	; 0x7ac <__mulsf3+0x12>
 7aa:	a6 cf       	rjmp	.-180    	; 0x6f8 <__fp_inf>
 7ac:	ab cf       	rjmp	.-170    	; 0x704 <__fp_nan>
 7ae:	11 24       	eor	r1, r1
 7b0:	ee cf       	rjmp	.-36     	; 0x78e <__fp_szero>

000007b2 <__mulsf3x>:
 7b2:	ca df       	rcall	.-108    	; 0x748 <__fp_split3>
 7b4:	a0 f3       	brcs	.-24     	; 0x79e <__mulsf3+0x4>

000007b6 <__mulsf3_pse>:
 7b6:	95 9f       	mul	r25, r21
 7b8:	d1 f3       	breq	.-12     	; 0x7ae <__mulsf3+0x14>
 7ba:	95 0f       	add	r25, r21
 7bc:	50 e0       	ldi	r21, 0x00	; 0
 7be:	55 1f       	adc	r21, r21
 7c0:	62 9f       	mul	r22, r18
 7c2:	f0 01       	movw	r30, r0
 7c4:	72 9f       	mul	r23, r18
 7c6:	bb 27       	eor	r27, r27
 7c8:	f0 0d       	add	r31, r0
 7ca:	b1 1d       	adc	r27, r1
 7cc:	63 9f       	mul	r22, r19
 7ce:	aa 27       	eor	r26, r26
 7d0:	f0 0d       	add	r31, r0
 7d2:	b1 1d       	adc	r27, r1
 7d4:	aa 1f       	adc	r26, r26
 7d6:	64 9f       	mul	r22, r20
 7d8:	66 27       	eor	r22, r22
 7da:	b0 0d       	add	r27, r0
 7dc:	a1 1d       	adc	r26, r1
 7de:	66 1f       	adc	r22, r22
 7e0:	82 9f       	mul	r24, r18
 7e2:	22 27       	eor	r18, r18
 7e4:	b0 0d       	add	r27, r0
 7e6:	a1 1d       	adc	r26, r1
 7e8:	62 1f       	adc	r22, r18
 7ea:	73 9f       	mul	r23, r19
 7ec:	b0 0d       	add	r27, r0
 7ee:	a1 1d       	adc	r26, r1
 7f0:	62 1f       	adc	r22, r18
 7f2:	83 9f       	mul	r24, r19
 7f4:	a0 0d       	add	r26, r0
 7f6:	61 1d       	adc	r22, r1
 7f8:	22 1f       	adc	r18, r18
 7fa:	74 9f       	mul	r23, r20
 7fc:	33 27       	eor	r19, r19
 7fe:	a0 0d       	add	r26, r0
 800:	61 1d       	adc	r22, r1
 802:	23 1f       	adc	r18, r19
 804:	84 9f       	mul	r24, r20
 806:	60 0d       	add	r22, r0
 808:	21 1d       	adc	r18, r1
 80a:	82 2f       	mov	r24, r18
 80c:	76 2f       	mov	r23, r22
 80e:	6a 2f       	mov	r22, r26
 810:	11 24       	eor	r1, r1
 812:	9f 57       	subi	r25, 0x7F	; 127
 814:	50 40       	sbci	r21, 0x00	; 0
 816:	8a f0       	brmi	.+34     	; 0x83a <__mulsf3_pse+0x84>
 818:	e1 f0       	breq	.+56     	; 0x852 <__mulsf3_pse+0x9c>
 81a:	88 23       	and	r24, r24
 81c:	4a f0       	brmi	.+18     	; 0x830 <__mulsf3_pse+0x7a>
 81e:	ee 0f       	add	r30, r30
 820:	ff 1f       	adc	r31, r31
 822:	bb 1f       	adc	r27, r27
 824:	66 1f       	adc	r22, r22
 826:	77 1f       	adc	r23, r23
 828:	88 1f       	adc	r24, r24
 82a:	91 50       	subi	r25, 0x01	; 1
 82c:	50 40       	sbci	r21, 0x00	; 0
 82e:	a9 f7       	brne	.-22     	; 0x81a <__mulsf3_pse+0x64>
 830:	9e 3f       	cpi	r25, 0xFE	; 254
 832:	51 05       	cpc	r21, r1
 834:	70 f0       	brcs	.+28     	; 0x852 <__mulsf3_pse+0x9c>
 836:	60 cf       	rjmp	.-320    	; 0x6f8 <__fp_inf>
 838:	aa cf       	rjmp	.-172    	; 0x78e <__fp_szero>
 83a:	5f 3f       	cpi	r21, 0xFF	; 255
 83c:	ec f3       	brlt	.-6      	; 0x838 <__mulsf3_pse+0x82>
 83e:	98 3e       	cpi	r25, 0xE8	; 232
 840:	dc f3       	brlt	.-10     	; 0x838 <__mulsf3_pse+0x82>
 842:	86 95       	lsr	r24
 844:	77 95       	ror	r23
 846:	67 95       	ror	r22
 848:	b7 95       	ror	r27
 84a:	f7 95       	ror	r31
 84c:	e7 95       	ror	r30
 84e:	9f 5f       	subi	r25, 0xFF	; 255
 850:	c1 f7       	brne	.-16     	; 0x842 <__mulsf3_pse+0x8c>
 852:	fe 2b       	or	r31, r30
 854:	88 0f       	add	r24, r24
 856:	91 1d       	adc	r25, r1
 858:	96 95       	lsr	r25
 85a:	87 95       	ror	r24
 85c:	97 f9       	bld	r25, 7
 85e:	08 95       	ret

00000860 <putchar>:
 860:	60 91 2a 01 	lds	r22, 0x012A
 864:	70 91 2b 01 	lds	r23, 0x012B
 868:	0e 94 37 04 	call	0x86e	; 0x86e <fputc>
 86c:	08 95       	ret

0000086e <fputc>:
 86e:	0f 93       	push	r16
 870:	1f 93       	push	r17
 872:	cf 93       	push	r28
 874:	df 93       	push	r29
 876:	18 2f       	mov	r17, r24
 878:	09 2f       	mov	r16, r25
 87a:	eb 01       	movw	r28, r22
 87c:	8b 81       	ldd	r24, Y+3	; 0x03
 87e:	81 fd       	sbrc	r24, 1
 880:	03 c0       	rjmp	.+6      	; 0x888 <fputc+0x1a>
 882:	8f ef       	ldi	r24, 0xFF	; 255
 884:	9f ef       	ldi	r25, 0xFF	; 255
 886:	20 c0       	rjmp	.+64     	; 0x8c8 <fputc+0x5a>
 888:	82 ff       	sbrs	r24, 2
 88a:	10 c0       	rjmp	.+32     	; 0x8ac <fputc+0x3e>
 88c:	4e 81       	ldd	r20, Y+6	; 0x06
 88e:	5f 81       	ldd	r21, Y+7	; 0x07
 890:	2c 81       	ldd	r18, Y+4	; 0x04
 892:	3d 81       	ldd	r19, Y+5	; 0x05
 894:	42 17       	cp	r20, r18
 896:	53 07       	cpc	r21, r19
 898:	7c f4       	brge	.+30     	; 0x8b8 <fputc+0x4a>
 89a:	e8 81       	ld	r30, Y
 89c:	f9 81       	ldd	r31, Y+1	; 0x01
 89e:	9f 01       	movw	r18, r30
 8a0:	2f 5f       	subi	r18, 0xFF	; 255
 8a2:	3f 4f       	sbci	r19, 0xFF	; 255
 8a4:	39 83       	std	Y+1, r19	; 0x01
 8a6:	28 83       	st	Y, r18
 8a8:	10 83       	st	Z, r17
 8aa:	06 c0       	rjmp	.+12     	; 0x8b8 <fputc+0x4a>
 8ac:	e8 85       	ldd	r30, Y+8	; 0x08
 8ae:	f9 85       	ldd	r31, Y+9	; 0x09
 8b0:	81 2f       	mov	r24, r17
 8b2:	09 95       	icall
 8b4:	89 2b       	or	r24, r25
 8b6:	29 f7       	brne	.-54     	; 0x882 <fputc+0x14>
 8b8:	2e 81       	ldd	r18, Y+6	; 0x06
 8ba:	3f 81       	ldd	r19, Y+7	; 0x07
 8bc:	2f 5f       	subi	r18, 0xFF	; 255
 8be:	3f 4f       	sbci	r19, 0xFF	; 255
 8c0:	3f 83       	std	Y+7, r19	; 0x07
 8c2:	2e 83       	std	Y+6, r18	; 0x06
 8c4:	81 2f       	mov	r24, r17
 8c6:	90 2f       	mov	r25, r16
 8c8:	df 91       	pop	r29
 8ca:	cf 91       	pop	r28
 8cc:	1f 91       	pop	r17
 8ce:	0f 91       	pop	r16
 8d0:	08 95       	ret

000008d2 <_exit>:
 8d2:	f8 94       	cli

000008d4 <__stop_program>:
 8d4:	ff cf       	rjmp	.-2      	; 0x8d4 <__stop_program>
